(dp0
I501371187
(lp1
(dp2
S'itens'
p3
(lp4
S' Organiza\xc3\xa7\xc3\xa3o'
p5
aS''
p6
aS' Compras'
p7
aS' Atividades'
p8
asS'nome'
p9
S'Teste'
p10
sasI674741350
(lp11
(dp12
S'itens'
p13
(lp14
sS'nome'
p15
Vbora
p16
sas.